Certificate:
    Data:
        Version: 3 (0x2)
        Serial Number: 21561 (0x5439)
    Signature Algorithm: sha512WithRSAEncryption
        Issuer: C=US, O=Test Security, OU=Certificate Authority Example
        Validity
            Not Before: Apr 13 23:19:03 2021 GMT
            Not After : Apr 13 23:19:03 2023 GMT
        Subject: C=US, O=Test Security, CN=localhost
        Subject Public Key Info:
            Public Key Algorithm: rsaEncryption
                Public-Key: (1024 bit)
                Modulus:
                    00:c0:65:3c:cb:1c:10:a7:d8:fb:36:ae:72:14:85:
                    c2:67:1d:e0:79:35:14:22:8e:ed:c3:d5:61:a7:a4:
                    28:f5:cd:e8:a1:b0:52:c3:39:e0:26:56:81:3f:77:
                    ee:5f:95:23:01:9e:fc:b0:2e:66:02:4d:05:be:5d:
                    df:ff:9e:2f:33:48:50:8f:3e:a2:21:b6:04:f7:c7:
                    92:e3:ad:dc:38:0d:d0:99:68:4a:1e:a0:93:d3:95:
                    2a:ff:4c:57:44:23:5a:f3:93:a1:39:86:45:97:58:
                    01:a7:2b:00:5f:a1:e4:1a:a0:d4:70:21:59:22:85:
                    ec:33:42:31:fc:78:3e:85:35
                Exponent: 65537 (0x10001)
        X509v3 extensions:
            X509v3 Key Usage: critical
                Digital Signature, Key Encipherment
            X509v3 Extended Key Usage: 
                TLS Web Server Authentication, TLS Web Client Authentication
            X509v3 Basic Constraints: critical
                CA:FALSE
            X509v3 Subject Alternative Name: 
                DNS:localhost, IP Address:127.0.0.1
    Signature Algorithm: sha512WithRSAEncryption
         4d:c5:6b:db:23:1a:d0:9e:5d:89:3d:79:96:d7:79:cb:9a:24:
         ec:70:e8:e5:1b:18:dc:08:b9:0a:f3:e8:64:71:e6:fb:7d:b0:
         f9:53:cb:3c:09:16:2a:6f:b0:4d:dc:0e:bd:3d:13:8c:a1:7c:
         ae:44:71:53:43:ce:5a:f3:7e:fa:95:4b:dc:24:eb:08:fe:1b:
         0c:86:e1:b1:89:b9:c9:d7:7d:9a:c8:ed:b4:7c:8c:6c:d4:71:
         ad:87:1b:cf:58:ef:42:1b:0d:f0:ba:ab:1c:fb:20:1c:f6:fc:
         a8:14:81:1a:e2:89:29:78:d0:2a:f0:c3:6e:e2:fe:1f:e9:08:
         e3:7f
-----BEGIN CERTIFICATE-----
MIICWDCCAcGgAwIBAgICVDkwDQYJKoZIhvcNAQENBQAwTTELMAkGA1UEBhMCVVMx
FjAUBgNVBAoMDVRlc3QgU2VjdXJpdHkxJjAkBgNVBAsMHUNlcnRpZmljYXRlIEF1
dGhvcml0eSBFeGFtcGxlMB4XDTIxMDQxMzIzMTkwM1oXDTIzMDQxMzIzMTkwM1ow
OTELMAkGA1UEBhMCVVMxFjAUBgNVBAoMDVRlc3QgU2VjdXJpdHkxEjAQBgNVBAMM
CWxvY2FsaG9zdDCBnzANBgkqhkiG9w0BAQEFAAOBjQAwgYkCgYEAwGU8yxwQp9j7
Nq5yFIXCZx3geTUUIo7tw9Vhp6Qo9c3oobBSwzngJlaBP3fuX5UjAZ78sC5mAk0F
vl3f/54vM0hQjz6iIbYE98eS463cOA3QmWhKHqCT05Uq/0xXRCNa85OhOYZFl1gB
pysAX6HkGqDUcCFZIoXsM0Ix/Hg+hTUCAwEAAaNbMFkwDgYDVR0PAQH/BAQDAgWg
MB0GA1UdJQQWMBQGCCsGAQUFBwMBBggrBgEFBQcDAjAMBgNVHRMBAf8EAjAAMBoG
A1UdEQQTMBGCCWxvY2FsaG9zdIcEfwAAATANBgkqhkiG9w0BAQ0FAAOBgQBNxWvb
IxrQnl2JPXmW13nLmiTscOjlGxjcCLkK8+hkceb7fbD5U8s8CRYqb7BN3A69PROM
oXyuRHFTQ85a8376lUvcJOsI/hsMhuGxibnJ132ayO20fIxs1HGthxvPWO9CGw3w
uqsc+yAc9vyoFIEa4okpeNAq8MNu4v4f6Qjjfw==
-----END CERTIFICATE-----
